target datalayout = "e-m:e-p270:32:32-p271:32:32-p272:64:64-i64:64-i128:128-f80:128-n8:16:32:64-S128"
target triple = "x86_64-pc-linux-gnu"

%"class.folly::IPAddressV6" = type <{ %"union.folly::IPAddressV6::AddressStorage", i16, [2 x i8] }>
%"union.folly::IPAddressV6::AddressStorage" = type { %struct.in6_addr }
%struct.in6_addr = type { %union.anon }
%union.anon = type { [4 x i32] }
%"struct.std::array" = type { [16 x i8] }
%"struct.std::pair.52" = type { %"class.folly::IPAddressV6", i8, [3 x i8] }
%"struct.std::pair.55" = type { %"struct.std::array", i8 }

@_ZN5folly11IPAddressV6C1ERKSt5arrayIhLm16EE = unnamed_addr alias void (ptr, ptr), ptr @_ZN5folly11IPAddressV6C2ERKSt5arrayIhLm16EE

; Function Attrs: mustprogress nounwind uwtable
define linkonce_odr void @_ZNSt4pairIN5folly11IPAddressV6EhEC2IS1_RhTnNSt9enable_ifIXaaclsr5_PCCPE22_MoveConstructiblePairIT_T0_EEclsr5_PCCPE30_ImplicitlyMoveConvertiblePairIS6_S7_EEEbE4typeELb1EEEOS6_OS7_(ptr noundef nonnull align 4 dereferenceable(21) %0, ptr noundef nonnull align 4 dereferenceable(18) %1, ptr noundef nonnull align 1 dereferenceable(1) %2) unnamed_addr #3 comdat align 2 {
  %4 = alloca ptr, align 8
  %5 = alloca ptr, align 8
  %6 = alloca ptr, align 8
  store ptr %0, ptr %4, align 8, !tbaa !500
  store ptr %1, ptr %5, align 8, !tbaa !7
  store ptr %2, ptr %6, align 8, !tbaa !28
  %7 = load ptr, ptr %4, align 8
  %8 = getelementptr inbounds nuw %"struct.std::pair.52", ptr %7, i32 0, i32 0
  %9 = load ptr, ptr %5, align 8, !tbaa !7
  call void @llvm.memcpy.p0.p0.i64(ptr align 4 %8, ptr align 4 %9, i64 20, i1 false), !tbaa.struct !107
  %10 = getelementptr inbounds nuw %"struct.std::pair.52", ptr %7, i32 0, i32 1
  %11 = load ptr, ptr %6, align 8, !tbaa !28
  %12 = load i8, ptr %11, align 1, !tbaa !22
  store i8 %12, ptr %10, align 4, !tbaa !502
  ret void
}

; Function Attrs: mustprogress uwtable
define void @_ZN5folly11IPAddressV619longestCommonPrefixERKSt4pairIS0_hES4_(ptr dead_on_unwind noalias writable sret(%"struct.std::pair.52") align 4 %0, ptr noundef nonnull align 4 dereferenceable(21) %1, ptr noundef nonnull align 4 dereferenceable(21) %2) #0 align 2 {
  %4 = alloca ptr, align 8
  %5 = alloca ptr, align 8
  %6 = alloca %"struct.std::pair.55", align 1
  %7 = alloca %"class.folly::IPAddressV6", align 4
  store ptr %1, ptr %4, align 8, !tbaa !500
  store ptr %2, ptr %5, align 8, !tbaa !500
  call void @llvm.lifetime.start.p0(i64 17, ptr %6) #13
  %8 = load ptr, ptr %4, align 8, !tbaa !500
  %9 = getelementptr inbounds nuw %"struct.std::pair.52", ptr %8, i32 0, i32 0
  %10 = getelementptr inbounds nuw %"class.folly::IPAddressV6", ptr %9, i32 0, i32 0
  %11 = load ptr, ptr %4, align 8, !tbaa !500
  %12 = getelementptr inbounds nuw %"struct.std::pair.52", ptr %11, i32 0, i32 1
  %13 = load i8, ptr %12, align 4, !tbaa !502
  %14 = load ptr, ptr %5, align 8, !tbaa !500
  %15 = getelementptr inbounds nuw %"struct.std::pair.52", ptr %14, i32 0, i32 0
  %16 = getelementptr inbounds nuw %"class.folly::IPAddressV6", ptr %15, i32 0, i32 0
  %17 = load ptr, ptr %5, align 8, !tbaa !500
  %18 = getelementptr inbounds nuw %"struct.std::pair.52", ptr %17, i32 0, i32 1
  %19 = load i8, ptr %18, align 4, !tbaa !502
  call void @_ZN5folly6detail5Bytes19longestCommonPrefixILm16EEESt4pairISt5arrayIhXT_EEhERKS5_hS8_h(ptr dead_on_unwind writable sret(%"struct.std::pair.55") align 1 %6, ptr noundef nonnull align 1 dereferenceable(16) %10, i8 noundef zeroext %13, ptr noundef nonnull align 1 dereferenceable(16) %16, i8 noundef zeroext %19)
  call void @llvm.lifetime.start.p0(i64 20, ptr %7) #13
  %20 = getelementptr inbounds nuw %"struct.std::pair.55", ptr %6, i32 0, i32 0
  call void @_ZN5folly11IPAddressV6C1ERKSt5arrayIhLm16EE(ptr noundef nonnull align 4 dereferenceable(18) %7, ptr noundef nonnull align 1 dereferenceable(16) %20) #13
  %21 = getelementptr inbounds nuw %"struct.std::pair.55", ptr %6, i32 0, i32 1
  call void @_ZNSt4pairIN5folly11IPAddressV6EhEC2IS1_RhTnNSt9enable_ifIXaaclsr5_PCCPE22_MoveConstructiblePairIT_T0_EEclsr5_PCCPE30_ImplicitlyMoveConvertiblePairIS6_S7_EEEbE4typeELb1EEEOS6_OS7_(ptr noundef nonnull align 4 dereferenceable(21) %0, ptr noundef nonnull align 4 dereferenceable(18) %7, ptr noundef nonnull align 1 dereferenceable(1) %21)
  call void @llvm.lifetime.end.p0(i64 20, ptr %7) #13
  call void @llvm.lifetime.end.p0(i64 17, ptr %6) #13
  ret void
}