; Function Attrs: mustprogress uwtable
define void @_ZN5folly11IPAddressV619longestCommonPrefixERKSt4pairIS0_hES4_(ptr dead_on_unwind noalias writable writeonly sret(%"struct.std::pair.52") align 4 captures(none) %0, ptr noundef nonnull align 4 dereferenceable(21) %1, ptr noundef nonnull align 4 dereferenceable(21) %2) local_unnamed_addr #0 align 2 {
  %4 = alloca %"struct.std::pair.55", align 1
  call void @llvm.lifetime.start.p0(i64 17, ptr nonnull %4) #37
  %5 = getelementptr inbounds nuw i8, ptr %1, i64 20
  %6 = load i8, ptr %5, align 4, !tbaa !284
  %7 = getelementptr inbounds nuw i8, ptr %2, i64 20
  %8 = load i8, ptr %7, align 4, !tbaa !284
  call void @_ZN5folly6detail5Bytes19longestCommonPrefixILm16EEESt4pairISt5arrayIhXT_EEhERKS5_hS8_h(ptr dead_on_unwind nonnull writable sret(%"struct.std::pair.55") align 1 %4, ptr noundef nonnull align 1 dereferenceable(16) %1, i8 noundef zeroext %6, ptr noundef nonnull align 1 dereferenceable(16) %2, i8 noundef zeroext %8)
  call void @_ZN5folly11IPAddressV6C1ERKSt5arrayIhLm16EE(ptr noundef nonnull align 4 dereferenceable(18) %0, ptr noundef nonnull align 1 dereferenceable(16) %4) #37
  %9 = getelementptr inbounds nuw i8, ptr %4, i64 16
  %10 = getelementptr inbounds nuw i8, ptr %0, i64 20
  %11 = load i8, ptr %9, align 1, !tbaa !9
  store i8 %11, ptr %10, align 4, !tbaa !284
  call void @llvm.lifetime.end.p0(i64 17, ptr nonnull %4) #37
  ret void
}